; Function Attrs: mustprogress uwtable
define void @_ZN6GLArea10drawTargetEv(ptr noundef nonnull align 8 dereferenceable(1676) %0) local_unnamed_addr #9 align 2 {
  tail call void @_ZN9QGLWidget11makeCurrentEv(ptr noundef nonnull align 8 dereferenceable(48) %0)
  %2 = getelementptr inbounds i8, ptr %0, i64 1660
  %3 = load i32, ptr %2, align 4
  %.not = icmp eq i32 %3, 0
  br i1 %.not, label %43, label %4

4:                                                ; preds = %1
  %5 = getelementptr inbounds i8, ptr %0, i64 56
  %6 = load ptr, ptr %5, align 8
  %7 = icmp eq ptr %6, null
  %8 = getelementptr inbounds i8, ptr %6, i64 48
  %spec.select.i = select i1 %7, ptr null, ptr %8
  %9 = tail call noundef ptr @_ZN12MeshDocument2rmEv(ptr noundef nonnull align 8 dereferenceable(192) %spec.select.i)
  %10 = icmp eq ptr %9, null
  br i1 %10, label %43, label %11

11:                                               ; preds = %4
  %12 = load ptr, ptr %5, align 8
  %13 = icmp eq ptr %12, null
  %14 = getelementptr inbounds i8, ptr %12, i64 48
  %spec.select.i9 = select i1 %13, ptr null, ptr %14
  %15 = tail call noundef ptr @_ZN12MeshDocument2rmEv(ptr noundef nonnull align 8 dereferenceable(192) %spec.select.i9)
  %16 = getelementptr inbounds i8, ptr %15, i64 144
  %17 = load ptr, ptr %16, align 8
  %18 = getelementptr inbounds i8, ptr %17, i64 16
  %19 = tail call noundef i32 @_ZNK6QImage5widthEv(ptr noundef nonnull align 8 dereferenceable(32) %18)
  %20 = sitofp i32 %19 to float
  %21 = tail call noundef i32 @_ZNK6QImage6heightEv(ptr noundef nonnull align 8 dereferenceable(32) %18)
  %22 = sitofp i32 %21 to float
  %23 = fdiv float %20, %22
  %24 = getelementptr inbounds i8, ptr %0, i64 40
  %25 = load ptr, ptr %24, align 8
  %26 = getelementptr inbounds i8, ptr %25, i64 20
  %27 = getelementptr inbounds i8, ptr %25, i64 28
  %28 = load <2 x i32>, ptr %27, align 4
  %29 = load <2 x i32>, ptr %26, align 4
  %30 = add <2 x i32> %28, <i32 1, i32 1>
  %31 = sub <2 x i32> %30, %29
  %32 = sitofp <2 x i32> %31 to <2 x float>
  %33 = extractelement <2 x float> %32, i64 0
  %34 = extractelement <2 x float> %32, i64 1
  %35 = fdiv float %33, %34
  tail call void @glPushMatrix()
  tail call void @glLoadIdentity()
  tail call void @glMatrixMode(i32 noundef 5889)
  tail call void @glPushMatrix()
  tail call void @glLoadIdentity()
  %36 = fneg float %35
  %37 = fpext float %36 to double
  %38 = fpext float %35 to double
  tail call void @gluOrtho2D(double noundef %37, double noundef %38, double noundef -1.000000e+00, double noundef 1.000000e+00)
  %39 = getelementptr inbounds i8, ptr %0, i64 1656
  %40 = load float, ptr %39, align 8
  tail call void @glColor4f(float noundef 1.000000e+00, float noundef 1.000000e+00, float noundef 1.000000e+00, float noundef %40)
  tail call void @glDisable(i32 noundef 2896)
  tail call void @glDisable(i32 noundef 2929)
  tail call void @glEnable(i32 noundef 3042)
  tail call void @glBlendFunc(i32 noundef 770, i32 noundef 771)
  tail call void @glEnable(i32 noundef 3553)
  %41 = load i32, ptr %2, align 4
  tail call void @glBindTexture(i32 noundef 3553, i32 noundef %41)
  tail call void @glTexEnvi(i32 noundef 8960, i32 noundef 8704, i32 noundef 8448)
  tail call void @glBegin(i32 noundef 7)
  tail call void @glTexCoord2f(float noundef 0.000000e+00, float noundef 0.000000e+00)
  %42 = fneg float %23
  tail call void @glVertex3f(float noundef %42, float noundef -1.000000e+00, float noundef 0.000000e+00)
  tail call void @glTexCoord2f(float noundef 1.000000e+00, float noundef 0.000000e+00)
  tail call void @glVertex3f(float noundef %23, float noundef -1.000000e+00, float noundef 0.000000e+00)
  tail call void @glTexCoord2f(float noundef 1.000000e+00, float noundef 1.000000e+00)
  tail call void @glVertex3f(float noundef %23, float noundef 1.000000e+00, float noundef 0.000000e+00)
  tail call void @glTexCoord2f(float noundef 0.000000e+00, float noundef 1.000000e+00)
  tail call void @glVertex3f(float noundef %42, float noundef 1.000000e+00, float noundef 0.000000e+00)
  tail call void @glEnd()
  tail call void @glEnable(i32 noundef 2929)
  tail call void @glEnable(i32 noundef 2896)
  tail call void @glBindTexture(i32 noundef 3553, i32 noundef 0)
  tail call void @glDisable(i32 noundef 3553)
  tail call void @glPopMatrix()
  tail call void @glMatrixMode(i32 noundef 5888)
  tail call void @glPopMatrix()
  br label %43

43:                                               ; preds = %4, %1, %11
  ret void
}